

Microchip Technology PIC LITE Macro Assembler V1.35 build -356382666 
                                                                                               Thu Jun 30 13:04:38 2016

Microchip Technology Omniscient Code Generator v1.35 (Free mode) build 201507080246
     1                           	processor	16F877A
     2                           	opt	pw 120
     3                           	opt	lm
     4                           	psect	idataCOMMON,global,class=CODE,delta=2
     5                           	psect	nvBANK0,global,class=BANK0,space=1,delta=1
     6                           	psect	cinit,global,class=CODE,merge=1,delta=2
     7                           	psect	bssCOMMON,global,class=COMMON,space=1,delta=1
     8                           	psect	dataCOMMON,global,class=COMMON,space=1,delta=1
     9                           	psect	bssBANK0,global,class=BANK0,space=1,delta=1
    10                           	psect	cstackCOMMON,global,class=COMMON,space=1,delta=1
    11                           	psect	cstackBANK0,global,class=BANK0,space=1,delta=1
    12                           	psect	maintext,global,class=CODE,split=1,delta=2
    13                           	psect	text1,local,class=CODE,merge=1,delta=2
    14                           	psect	text2,local,class=CODE,merge=1,delta=2
    15                           	psect	text3,local,class=CODE,merge=1,delta=2
    16                           	psect	text4,local,class=CODE,merge=1,delta=2
    17                           	psect	text5,local,class=CODE,merge=1,delta=2
    18                           	psect	text6,local,class=CODE,merge=1,delta=2
    19                           	psect	text7,local,class=CODE,merge=1,delta=2
    20                           	psect	text8,local,class=CODE,merge=1,delta=2
    21                           	psect	intentry,global,class=CODE,delta=2
    22                           	psect	text9,local,class=CODE,merge=1,delta=2
    23                           	dabs	1,0x7E,2
    24  0000                     	;# 
    25  0001                     	;# 
    26  0002                     	;# 
    27  0003                     	;# 
    28  0004                     	;# 
    29  0005                     	;# 
    30  0006                     	;# 
    31  0007                     	;# 
    32  0008                     	;# 
    33  0009                     	;# 
    34  000A                     	;# 
    35  000B                     	;# 
    36  000C                     	;# 
    37  000D                     	;# 
    38  000E                     	;# 
    39  000E                     	;# 
    40  000F                     	;# 
    41  0010                     	;# 
    42  0011                     	;# 
    43  0012                     	;# 
    44  0013                     	;# 
    45  0014                     	;# 
    46  0015                     	;# 
    47  0015                     	;# 
    48  0016                     	;# 
    49  0017                     	;# 
    50  0018                     	;# 
    51  0019                     	;# 
    52  001A                     	;# 
    53  001B                     	;# 
    54  001B                     	;# 
    55  001C                     	;# 
    56  001D                     	;# 
    57  001E                     	;# 
    58  001F                     	;# 
    59  0081                     	;# 
    60  0085                     	;# 
    61  0086                     	;# 
    62  0087                     	;# 
    63  0088                     	;# 
    64  0089                     	;# 
    65  008C                     	;# 
    66  008D                     	;# 
    67  008E                     	;# 
    68  0091                     	;# 
    69  0092                     	;# 
    70  0093                     	;# 
    71  0094                     	;# 
    72  0098                     	;# 
    73  0099                     	;# 
    74  009C                     	;# 
    75  009D                     	;# 
    76  009E                     	;# 
    77  009F                     	;# 
    78  010C                     	;# 
    79  010D                     	;# 
    80  010E                     	;# 
    81  010F                     	;# 
    82  018C                     	;# 
    83  018D                     	;# 
    84                           
    85                           	psect	idataCOMMON
    86  0213                     __pidataCOMMON:	
    87                           
    88                           ;initializer for _pagerID
    89  0213  344B               	retlw	75
    90                           
    91                           	psect	nvBANK0
    92  0028                     __pnvBANK0:	
    93  0028                     _BATERIJA:	
    94  0028                     	ds	1
    95  001E                     _ADRESH	set	30
    96  0019                     _TXREG	set	25
    97  00FE                     _ADCS0	set	254
    98  00FF                     _ADCS1	set	255
    99  0066                     _ADIF	set	102
   100  00F8                     _ADON	set	248
   101  00FB                     _CHS0	set	251
   102  00FC                     _CHS1	set	252
   103  00FD                     _CHS2	set	253
   104  005F                     _GIE	set	95
   105  00FA                     _GO	set	250
   106  005E                     _PEIE	set	94
   107  002D                     _RA5	set	45
   108  0030                     _RB0	set	48
   109  003B                     _RC3	set	59
   110  0040                     _RD0	set	64
   111  0041                     _RD1	set	65
   112  0042                     _RD2	set	66
   113  0043                     _RD3	set	67
   114  0044                     _RD4	set	68
   115  0045                     _RD5	set	69
   116  0046                     _RD6	set	70
   117  00C7                     _SPEN	set	199
   118  0084                     _T1CKPS0	set	132
   119  0085                     _T1CKPS1	set	133
   120  0083                     _T1OSCEN	set	131
   121  0090                     _T2CKPS0	set	144
   122  0091                     _T2CKPS1	set	145
   123  005D                     _TMR0IE	set	93
   124  005A                     _TMR0IF	set	90
   125  0081                     _TMR1CS	set	129
   126  0060                     _TMR1IF	set	96
   127  0080                     _TMR1ON	set	128
   128  0061                     _TMR2IF	set	97
   129  0092                     _TMR2ON	set	146
   130  0092                     _PR2	set	146
   131  0099                     _SPBRG	set	153
   132  0085                     _TRISAbits	set	133
   133  0086                     _TRISBbits	set	134
   134  0087                     _TRISCbits	set	135
   135  0088                     _TRISD	set	136
   136  04FE                     _ADCS2	set	1278
   137  04FF                     _ADFM	set	1279
   138  0466                     _ADIE	set	1126
   139  04C2                     _BRGH	set	1218
   140  04F8                     _PCFG0	set	1272
   141  04F9                     _PCFG1	set	1273
   142  04FA                     _PCFG2	set	1274
   143  04FB                     _PCFG3	set	1275
   144  0408                     _PS0	set	1032
   145  0409                     _PS1	set	1033
   146  040A                     _PS2	set	1034
   147  040B                     _PSA	set	1035
   148  04C4                     _SYNC	set	1220
   149  040D                     _T0CS	set	1037
   150  0460                     _TMR1IE	set	1120
   151  0461                     _TMR2IE	set	1121
   152  04C5                     _TXEN	set	1221
   153                           
   154                           ; #config settings
   155  0000                     
   156                           	psect	cinit
   157  0015                     start_initialization:	
   158  0015                     __initialization:	
   159                           
   160                           ; Clear objects allocated to COMMON
   161  0015  01F0               	clrf	__pbssCOMMON& (0+127)
   162  0016  01F1               	clrf	(__pbssCOMMON+1)& (0+127)
   163  0017  01F2               	clrf	(__pbssCOMMON+2)& (0+127)
   164  0018  01F3               	clrf	(__pbssCOMMON+3)& (0+127)
   165  0019  01F4               	clrf	(__pbssCOMMON+4)& (0+127)
   166                           
   167                           ; Clear objects allocated to BANK0
   168  001A  01A0               	clrf	__pbssBANK0& (0+127)
   169  001B  01A1               	clrf	(__pbssBANK0+1)& (0+127)
   170  001C  01A2               	clrf	(__pbssBANK0+2)& (0+127)
   171  001D  01A3               	clrf	(__pbssBANK0+3)& (0+127)
   172  001E  01A4               	clrf	(__pbssBANK0+4)& (0+127)
   173                           
   174                           ; Initialize objects allocated to COMMON
   175  001F  120A  118A  2213   	fcall	__pidataCOMMON	;fetch initializer
   176  0022  00FA               	movwf	__pdataCOMMON& (0+127)
   177  0023                     end_of_initialization:	
   178                           ;End of C runtime variable initialization code
   179                           
   180  0023                     __end_of__initialization:	
   181  0023  0183               	clrf	3
   182  0024  120A  118A  29F4   	ljmp	_main	;jump to C main() function
   183                           
   184                           	psect	bssCOMMON
   185  0070                     __pbssCOMMON:	
   186  0070                     _STANJE:	
   187  0070                     	ds	1
   188  0071                     _i:	
   189  0071                     	ds	1
   190  0072                     _message_header:	
   191  0072                     	ds	1
   192  0073                     _play:	
   193  0073                     	ds	1
   194  0074                     _sound:	
   195  0074                     	ds	1
   196                           
   197                           	psect	dataCOMMON
   198  007A                     __pdataCOMMON:	
   199  007A                     _pagerID:	
   200  007A                     	ds	1
   201                           
   202                           	psect	bssBANK0
   203  0020                     __pbssBANK0:	
   204  0020                     _brojacLED:	
   205  0020                     	ds	1
   206  0021                     _brojacVIB:	
   207  0021                     	ds	1
   208  0022                     _loop:	
   209  0022                     	ds	1
   210  0023                     _opsegID:	
   211  0023                     	ds	1
   212  0024                     _prazna:	
   213  0024                     	ds	1
   214                           
   215                           	psect	cstackCOMMON
   216  0075                     __pcstackCOMMON:	
   217  0075                     ?_init:	
   218  0075                     ?_rf_decode:	
   219                           ; 0 bytes @ 0x0
   220                           
   221  0075                     ?_led_show:	
   222                           ; 0 bytes @ 0x0
   223                           
   224  0075                     ??_led_show:	
   225                           ; 0 bytes @ 0x0
   226                           
   227  0075                     ?_init_analog:	
   228                           ; 0 bytes @ 0x0
   229                           
   230  0075                     ?_init_buzz:	
   231                           ; 0 bytes @ 0x0
   232                           
   233  0075                     ?_init_batt:	
   234                           ; 0 bytes @ 0x0
   235                           
   236  0075                     ?_init_led:	
   237                           ; 0 bytes @ 0x0
   238                           
   239  0075                     ?_init_debug:	
   240                           ; 0 bytes @ 0x0
   241                           
   242  0075                     ?_main:	
   243                           ; 0 bytes @ 0x0
   244                           
   245  0075                     ?_prekidna_rutina:	
   246                           ; 0 bytes @ 0x0
   247                           
   248  0075                     ??_prekidna_rutina:	
   249                           ; 0 bytes @ 0x0
   250                           
   251                           
   252                           ; 0 bytes @ 0x0
   253  0075                     	ds	5
   254                           
   255                           	psect	cstackBANK0
   256  0025                     __pcstackBANK0:	
   257  0025                     ??_init:	
   258  0025                     ??_rf_decode:	
   259                           ; 0 bytes @ 0x0
   260                           
   261  0025                     ??_init_analog:	
   262                           ; 0 bytes @ 0x0
   263                           
   264  0025                     ??_init_buzz:	
   265                           ; 0 bytes @ 0x0
   266                           
   267  0025                     ??_init_batt:	
   268                           ; 0 bytes @ 0x0
   269                           
   270  0025                     ??_init_led:	
   271                           ; 0 bytes @ 0x0
   272                           
   273  0025                     ??_init_debug:	
   274                           ; 0 bytes @ 0x0
   275                           
   276                           
   277                           ; 0 bytes @ 0x0
   278  0025                     	ds	2
   279  0027                     rf_decode@podatak:	
   280                           
   281                           ; 1 bytes @ 0x2
   282  0027                     	ds	1
   283  0028                     ??_main:	
   284                           
   285                           	psect	maintext
   286  01F4                     __pmaintext:	
   287                           ; 0 bytes @ 0x3
   288 ;;
   289 ;;Main: autosize = 0, tempsize = 0, incstack = 0, save=0
   290 ;;
   291 ;; *************** function _main *****************
   292 ;; Defined at:
   293 ;;		line 84 in file "main.c"
   294 ;; Parameters:    Size  Location     Type
   295 ;;		None
   296 ;; Auto vars:     Size  Location     Type
   297 ;;		None
   298 ;; Return value:  Size  Location     Type
   299 ;;		None               void
   300 ;; Registers used:
   301 ;;		wreg, status,2, status,0, pclath, cstack
   302 ;; Tracked objects:
   303 ;;		On entry : B00/0
   304 ;;		On exit  : 0/0
   305 ;;		Unchanged: 0/0
   306 ;; Data sizes:     COMMON   BANK0   BANK1   BANK3   BANK2
   307 ;;      Params:         0       0       0       0       0
   308 ;;      Locals:         0       0       0       0       0
   309 ;;      Temps:          0       0       0       0       0
   310 ;;      Totals:         0       0       0       0       0
   311 ;;Total ram usage:        0 bytes
   312 ;; Hardware stack levels required when called:    4
   313 ;; This function calls:
   314 ;;		_init
   315 ;;		_rf_decode
   316 ;; This function is called by:
   317 ;;		Startup code after reset
   318 ;; This function uses a non-reentrant model
   319 ;;
   320                           
   321                           
   322                           ;psect for function _main
   323  01F4                     _main:	
   324                           
   325                           ;main.c: 85: init();
   326                           
   327                           ;incstack = 0
   328                           ; Regs used in _main: [wreg+status,2+status,0+pclath+cstack]
   329  01F4  120A  118A  217B  120A  118A  	fcall	_init
   330  01F9                     l161:	
   331                           ;main.c: 86: while(1){
   332                           
   333                           
   334                           ;main.c: 87: rf_decode();
   335  01F9  120A  118A  20E3  120A  118A  	fcall	_rf_decode
   336  01FE  29F9               	goto	l161
   337  01FF                     __end_of_main:	
   338                           
   339                           	psect	text1
   340  00E3                     __ptext1:	
   341 ;; *************** function _rf_decode *****************
   342 ;; Defined at:
   343 ;;		line 91 in file "main.c"
   344 ;; Parameters:    Size  Location     Type
   345 ;;		None
   346 ;; Auto vars:     Size  Location     Type
   347 ;;  podatak         1    2[BANK0 ] unsigned char 
   348 ;; Return value:  Size  Location     Type
   349 ;;		None               void
   350 ;; Registers used:
   351 ;;		wreg, status,2, status,0
   352 ;; Tracked objects:
   353 ;;		On entry : 0/0
   354 ;;		On exit  : 0/0
   355 ;;		Unchanged: 0/0
   356 ;; Data sizes:     COMMON   BANK0   BANK1   BANK3   BANK2
   357 ;;      Params:         0       0       0       0       0
   358 ;;      Locals:         0       1       0       0       0
   359 ;;      Temps:          0       2       0       0       0
   360 ;;      Totals:         0       3       0       0       0
   361 ;;Total ram usage:        3 bytes
   362 ;; Hardware stack levels used:    1
   363 ;; Hardware stack levels required when called:    2
   364 ;; This function calls:
   365 ;;		Nothing
   366 ;; This function is called by:
   367 ;;		_main
   368 ;; This function uses a non-reentrant model
   369 ;;
   370                           
   371                           
   372                           ;psect for function _rf_decode
   373  00E3                     _rf_decode:	
   374                           
   375                           ;main.c: 92: char podatak = 0;
   376                           
   377                           ;incstack = 0
   378                           ; Regs used in _rf_decode: [wreg+status,2+status,0]
   379  00E3  1283               	bcf	3,5	;RP0=0, select bank0
   380  00E4  1303               	bcf	3,6	;RP1=0, select bank0
   381  00E5  01A7               	clrf	rf_decode@podatak
   382                           
   383                           ;main.c: 93: for (i = 0; i < 100; i++){
   384  00E6  01F1               	clrf	_i
   385  00E7  3064               	movlw	100
   386  00E8  0271               	subwf	_i,w
   387  00E9  1803               	btfsc	3,0
   388  00EA  28FB               	goto	l171
   389  00EB                     l1269:	
   390                           
   391                           ;main.c: 94: _delay((unsigned long)((20)*(8000000/4000000.0)));
   392  00EB  300D               	movlw	13
   393  00EC  00A5               	movwf	??_rf_decode
   394  00ED                     u1207:	
   395  00ED  0BA5               	decfsz	??_rf_decode,f
   396  00EE  28ED               	goto	u1207
   397                           
   398                           ;main.c: 95: if (RB0 == 0) return;
   399  00EF  1283               	bcf	3,5	;RP0=0, select bank0
   400  00F0  1303               	bcf	3,6	;RP1=0, select bank0
   401  00F1  1C06               	btfss	6,0	;volatile
   402  00F2  0008               	return
   403  00F3  3001               	movlw	1
   404  00F4  00A5               	movwf	??_rf_decode
   405  00F5  0825               	movf	??_rf_decode,w
   406  00F6  07F1               	addwf	_i,f
   407  00F7  3064               	movlw	100
   408  00F8  0271               	subwf	_i,w
   409  00F9  1C03               	skipc
   410  00FA  28EB               	goto	l1269
   411  00FB                     l171:	
   412                           ;main.c: 96: }
   413                           ;main.c: 98: while(RB0 == 1);
   414                           
   415  00FB  1806               	btfsc	6,0	;volatile
   416  00FC  28FB               	goto	l171
   417                           
   418                           ;main.c: 99: _delay((unsigned long)((850)*(8000000/4000000.0)));
   419  00FD  30F2               	movlw	242
   420  00FE  00A5               	movwf	??_rf_decode
   421  00FF                     u1217:	
   422  00FF  2900               	nop2
   423  0100  2901               	nop2
   424  0101  0BA5               	decfsz	??_rf_decode,f
   425  0102  28FF               	goto	u1217
   426  0103  2904               	nop2	;nop
   427  0104  2905               	nop2	;nop
   428  0105  0000               	nop
   429                           
   430                           ;main.c: 101: for(i = 0; i < 8; i++){
   431  0106  01F1               	clrf	_i
   432  0107  3008               	movlw	8
   433  0108  0271               	subwf	_i,w
   434  0109  1803               	btfsc	3,0
   435  010A  293E               	goto	l1295
   436  010B                     l174:	
   437                           
   438                           ;main.c: 102: if(RB0 == 1)
   439  010B  1283               	bcf	3,5	;RP0=0, select bank0
   440  010C  1303               	bcf	3,6	;RP1=0, select bank0
   441  010D  1C06               	btfss	6,0	;volatile
   442  010E  291D               	goto	l1289
   443                           
   444                           ;main.c: 103: ((podatak) |= (1 << (i)));
   445  010F  3001               	movlw	1
   446  0110  00A5               	movwf	??_rf_decode
   447  0111  0A71               	incf	_i,w
   448  0112  2915               	goto	u1074
   449  0113                     u1075:	
   450  0113  1003               	clrc
   451  0114  0DA5               	rlf	??_rf_decode,f
   452  0115                     u1074:	
   453  0115  3EFF               	addlw	-1
   454  0116  1D03               	skipz
   455  0117  2913               	goto	u1075
   456  0118  0825               	movf	??_rf_decode,w
   457  0119  00A6               	movwf	??_rf_decode+1
   458  011A  0826               	movf	??_rf_decode+1,w
   459  011B  04A7               	iorwf	rf_decode@podatak,f
   460  011C  292B               	goto	l1291
   461  011D                     l1289:	
   462                           
   463                           ;main.c: 104: else
   464                           ;main.c: 105: ((podatak) &= ~(1 << (i)));
   465  011D  3001               	movlw	1
   466  011E  00A5               	movwf	??_rf_decode
   467  011F  0A71               	incf	_i,w
   468  0120  2923               	goto	u1084
   469  0121                     u1085:	
   470  0121  1003               	clrc
   471  0122  0DA5               	rlf	??_rf_decode,f
   472  0123                     u1084:	
   473  0123  3EFF               	addlw	-1
   474  0124  1D03               	skipz
   475  0125  2921               	goto	u1085
   476  0126  0825               	movf	??_rf_decode,w
   477  0127  3AFF               	xorlw	255
   478  0128  00A6               	movwf	??_rf_decode+1
   479  0129  0826               	movf	??_rf_decode+1,w
   480  012A  05A7               	andwf	rf_decode@podatak,f
   481  012B                     l1291:	
   482                           
   483                           ;main.c: 106: _delay((unsigned long)((1000)*(8000000/4000000.0)));
   484  012B  3003               	movlw	3
   485  012C  00A6               	movwf	??_rf_decode+1
   486  012D  3097               	movlw	151
   487  012E  00A5               	movwf	??_rf_decode
   488  012F                     u1227:	
   489  012F  0BA5               	decfsz	??_rf_decode,f
   490  0130  292F               	goto	u1227
   491  0131  0BA6               	decfsz	??_rf_decode+1,f
   492  0132  292F               	goto	u1227
   493  0133  2934               	nop2
   494  0134  3001               	movlw	1
   495  0135  1283               	bcf	3,5	;RP0=0, select bank0
   496  0136  1303               	bcf	3,6	;RP1=0, select bank0
   497  0137  00A5               	movwf	??_rf_decode
   498  0138  0825               	movf	??_rf_decode,w
   499  0139  07F1               	addwf	_i,f
   500  013A  3008               	movlw	8
   501  013B  0271               	subwf	_i,w
   502  013C  1C03               	skipc
   503  013D  290B               	goto	l174
   504  013E                     l1295:	
   505                           
   506                           ;main.c: 107: }
   507                           ;main.c: 108: TXREG = podatak;
   508  013E  1283               	bcf	3,5	;RP0=0, select bank0
   509  013F  1303               	bcf	3,6	;RP1=0, select bank0
   510  0140  0827               	movf	rf_decode@podatak,w
   511  0141  0099               	movwf	25	;volatile
   512                           
   513                           ;main.c: 110: if(podatak == '*' || podatak == '#'){
   514  0142  302A               	movlw	42
   515  0143  0627               	xorwf	rf_decode@podatak,w
   516  0144  1903               	btfsc	3,2
   517  0145  294A               	goto	l1301
   518  0146  3023               	movlw	35
   519  0147  0627               	xorwf	rf_decode@podatak,w
   520  0148  1D03               	btfss	3,2
   521  0149  295B               	goto	l1313
   522  014A                     l1301:	
   523                           
   524                           ;main.c: 111: message_header = podatak;
   525  014A  0827               	movf	rf_decode@podatak,w
   526  014B  00A5               	movwf	??_rf_decode
   527  014C  0825               	movf	??_rf_decode,w
   528  014D  00F2               	movwf	_message_header
   529                           
   530                           ;main.c: 112: opsegID = podatak;
   531  014E  0827               	movf	rf_decode@podatak,w
   532  014F  00A5               	movwf	??_rf_decode
   533  0150  0825               	movf	??_rf_decode,w
   534  0151  00A3               	movwf	_opsegID
   535                           
   536                           ;main.c: 113: if(STANJE == IZVANOPSEGA){
   537  0152  3002               	movlw	2
   538  0153  0670               	xorwf	_STANJE,w
   539  0154  1D03               	btfss	3,2
   540  0155  0008               	return
   541                           
   542                           ;main.c: 114: STANJE = CEKANJE;
   543  0156  01F0               	clrf	_STANJE
   544                           
   545                           ;main.c: 115: RD4 = 0;
   546  0157  1208               	bcf	8,4	;volatile
   547                           
   548                           ;main.c: 116: RD5 = 0;
   549  0158  1288               	bcf	8,5	;volatile
   550                           
   551                           ;main.c: 117: RA5 = 0;
   552  0159  1285               	bcf	5,5	;volatile
   553                           
   554                           ;main.c: 118: }
   555                           ;main.c: 119: } else if(podatak == pagerID) {
   556  015A  0008               	return
   557  015B                     l1313:	
   558  015B  0827               	movf	rf_decode@podatak,w
   559  015C  067A               	xorwf	_pagerID,w
   560  015D  1D03               	skipz
   561  015E  0008               	return
   562                           
   563                           ;main.c: 120: if(message_header == '*' && STANJE == CEKANJE || STANJE == IZVANOPSEGA)
   564  015F  302A               	movlw	42
   565  0160  0672               	xorwf	_message_header,w
   566  0161  1903               	btfsc	3,2
   567  0162  0870               	movf	_STANJE,w
   568  0163  1903               	btfsc	3,2
   569  0164  2969               	goto	l186
   570  0165  3002               	movlw	2
   571  0166  0670               	xorwf	_STANJE,w
   572  0167  1D03               	btfss	3,2
   573  0168  296B               	goto	l1321
   574  0169                     l186:	
   575                           
   576                           ;main.c: 121: STANJE = PROZVAN;
   577  0169  01F0               	clrf	_STANJE
   578  016A  0AF0               	incf	_STANJE,f
   579  016B                     l1321:	
   580                           
   581                           ;main.c: 123: if(message_header == '#' && STANJE == PROZVAN || STANJE == IZVANOPSEGA) {
   582  016B  3023               	movlw	35
   583  016C  0672               	xorwf	_message_header,w
   584  016D  1903               	btfsc	3,2
   585  016E  0370               	decf	_STANJE,w
   586  016F  1903               	btfsc	3,2
   587  0170  2975               	goto	l1327
   588  0171  3002               	movlw	2
   589  0172  0670               	xorwf	_STANJE,w
   590  0173  1D03               	btfss	3,2
   591  0174  2979               	goto	l189
   592  0175                     l1327:	
   593                           
   594                           ;main.c: 124: STANJE = CEKANJE;
   595  0175  01F0               	clrf	_STANJE
   596                           
   597                           ;main.c: 125: RD4 = 0;
   598  0176  1208               	bcf	8,4	;volatile
   599                           
   600                           ;main.c: 126: RD5 = 0;
   601  0177  1288               	bcf	8,5	;volatile
   602                           
   603                           ;main.c: 127: RA5 = 0;
   604  0178  1285               	bcf	5,5	;volatile
   605  0179                     l189:	
   606                           
   607                           ;main.c: 128: }
   608                           ;main.c: 129: message_header = 0x00;
   609  0179  01F2               	clrf	_message_header
   610  017A  0008               	return
   611  017B                     __end_of_rf_decode:	
   612                           
   613                           	psect	text2
   614  017B                     __ptext2:	
   615 ;; *************** function _init *****************
   616 ;; Defined at:
   617 ;;		line 200 in file "main.c"
   618 ;; Parameters:    Size  Location     Type
   619 ;;		None
   620 ;; Auto vars:     Size  Location     Type
   621 ;;		None
   622 ;; Return value:  Size  Location     Type
   623 ;;		None               void
   624 ;; Registers used:
   625 ;;		wreg, status,2, status,0, pclath, cstack
   626 ;; Tracked objects:
   627 ;;		On entry : 0/0
   628 ;;		On exit  : 0/0
   629 ;;		Unchanged: 0/0
   630 ;; Data sizes:     COMMON   BANK0   BANK1   BANK3   BANK2
   631 ;;      Params:         0       0       0       0       0
   632 ;;      Locals:         0       0       0       0       0
   633 ;;      Temps:          0       0       0       0       0
   634 ;;      Totals:         0       0       0       0       0
   635 ;;Total ram usage:        0 bytes
   636 ;; Hardware stack levels used:    1
   637 ;; Hardware stack levels required when called:    3
   638 ;; This function calls:
   639 ;;		_init_analog
   640 ;;		_init_batt
   641 ;;		_init_buzz
   642 ;;		_init_debug
   643 ;;		_init_led
   644 ;; This function is called by:
   645 ;;		_main
   646 ;; This function uses a non-reentrant model
   647 ;;
   648                           
   649                           
   650                           ;psect for function _init
   651  017B                     _init:	
   652                           
   653                           ;main.c: 202: STANJE = CEKANJE;
   654                           
   655                           ;incstack = 0
   656                           ; Regs used in _init: [wreg+status,2+status,0+pclath+cstack]
   657  017B  01F0               	clrf	_STANJE
   658                           
   659                           ;main.c: 205: BATERIJA = NIJEPRAZNA;
   660  017C  1283               	bcf	3,5	;RP0=0, select bank0
   661  017D  1303               	bcf	3,6	;RP1=0, select bank0
   662  017E  01A8               	clrf	_BATERIJA
   663  017F  0AA8               	incf	_BATERIJA,f
   664                           
   665                           ;main.c: 208: TRISD = 0x00;
   666  0180  1683               	bsf	3,5	;RP0=1, select bank1
   667  0181  1303               	bcf	3,6	;RP1=0, select bank1
   668  0182  0188               	clrf	8	;volatile
   669                           
   670                           ;main.c: 209: TRISAbits.TRISA0 = 1;
   671  0183  1405               	bsf	5,0	;volatile
   672                           
   673                           ;main.c: 210: TRISAbits.TRISA5 = 0;
   674  0184  1285               	bcf	5,5	;volatile
   675                           
   676                           ;main.c: 211: TRISCbits.TRISC3 = 0;
   677  0185  1187               	bcf	7,3	;volatile
   678                           
   679                           ;main.c: 212: TRISBbits.TRISB0 = 1;
   680  0186  1406               	bsf	6,0	;volatile
   681                           
   682                           ;main.c: 216: RD0 = 1;
   683  0187  1283               	bcf	3,5	;RP0=0, select bank0
   684  0188  1303               	bcf	3,6	;RP1=0, select bank0
   685  0189  1408               	bsf	8,0	;volatile
   686                           
   687                           ;main.c: 217: RD1 = 1;
   688  018A  1488               	bsf	8,1	;volatile
   689                           
   690                           ;main.c: 218: RD2 = 1;
   691  018B  1508               	bsf	8,2	;volatile
   692                           
   693                           ;main.c: 219: RD3 = 1;
   694  018C  1588               	bsf	8,3	;volatile
   695                           
   696                           ;main.c: 220: RD4 = 0;
   697  018D  1208               	bcf	8,4	;volatile
   698                           
   699                           ;main.c: 221: RD5 = 0;
   700  018E  1288               	bcf	8,5	;volatile
   701                           
   702                           ;main.c: 222: RD6 = 0;
   703  018F  1308               	bcf	8,6	;volatile
   704                           
   705                           ;main.c: 224: RA5 = 0;
   706  0190  1285               	bcf	5,5	;volatile
   707                           
   708                           ;main.c: 225: RC3 = 0;
   709  0191  1187               	bcf	7,3	;volatile
   710                           
   711                           ;main.c: 228: init_analog();
   712  0192  120A  118A  21AC  120A  118A  	fcall	_init_analog
   713                           
   714                           ;main.c: 229: init_buzz();
   715  0197  120A  118A  21D8  120A  118A  	fcall	_init_buzz
   716                           
   717                           ;main.c: 230: init_batt();
   718  019C  120A  118A  21FF  120A  118A  	fcall	_init_batt
   719                           
   720                           ;main.c: 231: init_led();
   721  01A1  120A  118A  220A  120A  118A  	fcall	_init_led
   722                           
   723                           ;main.c: 232: PEIE = 1;
   724  01A6  170B               	bsf	11,6	;volatile
   725                           
   726                           ;main.c: 234: if (1 == 1)
   727  01A7  178B               	bsf	11,7	;volatile
   728                           
   729                           ;main.c: 235: init_debug();
   730  01A8  120A  118A  21E7   	fcall	_init_debug
   731  01AB  0008               	return
   732  01AC                     __end_of_init:	
   733                           
   734                           	psect	text3
   735  020A                     __ptext3:	
   736 ;; *************** function _init_led *****************
   737 ;; Defined at:
   738 ;;		line 282 in file "main.c"
   739 ;; Parameters:    Size  Location     Type
   740 ;;		None
   741 ;; Auto vars:     Size  Location     Type
   742 ;;		None
   743 ;; Return value:  Size  Location     Type
   744 ;;		None               void
   745 ;; Registers used:
   746 ;;		None
   747 ;; Tracked objects:
   748 ;;		On entry : 0/0
   749 ;;		On exit  : 0/0
   750 ;;		Unchanged: 0/0
   751 ;; Data sizes:     COMMON   BANK0   BANK1   BANK3   BANK2
   752 ;;      Params:         0       0       0       0       0
   753 ;;      Locals:         0       0       0       0       0
   754 ;;      Temps:          0       0       0       0       0
   755 ;;      Totals:         0       0       0       0       0
   756 ;;Total ram usage:        0 bytes
   757 ;; Hardware stack levels used:    1
   758 ;; Hardware stack levels required when called:    2
   759 ;; This function calls:
   760 ;;		Nothing
   761 ;; This function is called by:
   762 ;;		_init
   763 ;; This function uses a non-reentrant model
   764 ;;
   765                           
   766                           
   767                           ;psect for function _init_led
   768  020A                     _init_led:	
   769                           
   770                           ;main.c: 283: T0CS = 0;
   771                           
   772                           ;incstack = 0
   773                           ; Regs used in _init_led: []
   774  020A  1683               	bsf	3,5	;RP0=1, select bank1
   775  020B  1303               	bcf	3,6	;RP1=0, select bank1
   776  020C  1281               	bcf	1,5	;volatile
   777                           
   778                           ;main.c: 285: PSA = 0;
   779  020D  1181               	bcf	1,3	;volatile
   780                           
   781                           ;main.c: 286: PS2 = 1;
   782  020E  1501               	bsf	1,2	;volatile
   783                           
   784                           ;main.c: 287: PS1 = 1;
   785  020F  1481               	bsf	1,1	;volatile
   786                           
   787                           ;main.c: 288: PS0 = 1;
   788  0210  1401               	bsf	1,0	;volatile
   789                           
   790                           ;main.c: 289: TMR0IE = 1;
   791  0211  168B               	bsf	11,5	;volatile
   792  0212  0008               	return
   793  0213                     __end_of_init_led:	
   794                           
   795                           	psect	text4
   796  01E7                     __ptext4:	
   797 ;; *************** function _init_debug *****************
   798 ;; Defined at:
   799 ;;		line 293 in file "main.c"
   800 ;; Parameters:    Size  Location     Type
   801 ;;		None
   802 ;; Auto vars:     Size  Location     Type
   803 ;;		None
   804 ;; Return value:  Size  Location     Type
   805 ;;		None               void
   806 ;; Registers used:
   807 ;;		wreg
   808 ;; Tracked objects:
   809 ;;		On entry : 0/0
   810 ;;		On exit  : 0/0
   811 ;;		Unchanged: 0/0
   812 ;; Data sizes:     COMMON   BANK0   BANK1   BANK3   BANK2
   813 ;;      Params:         0       0       0       0       0
   814 ;;      Locals:         0       0       0       0       0
   815 ;;      Temps:          0       0       0       0       0
   816 ;;      Totals:         0       0       0       0       0
   817 ;;Total ram usage:        0 bytes
   818 ;; Hardware stack levels used:    1
   819 ;; Hardware stack levels required when called:    2
   820 ;; This function calls:
   821 ;;		Nothing
   822 ;; This function is called by:
   823 ;;		_init
   824 ;; This function uses a non-reentrant model
   825 ;;
   826                           
   827                           
   828                           ;psect for function _init_debug
   829  01E7                     _init_debug:	
   830                           
   831                           ;main.c: 294: BRGH = 1;
   832                           
   833                           ;incstack = 0
   834                           ; Regs used in _init_debug: [wreg]
   835  01E7  1683               	bsf	3,5	;RP0=1, select bank1
   836  01E8  1303               	bcf	3,6	;RP1=0, select bank1
   837  01E9  1518               	bsf	24,2	;volatile
   838                           
   839                           ;main.c: 295: SPBRG = 51;
   840  01EA  3033               	movlw	51
   841  01EB  0099               	movwf	25	;volatile
   842                           
   843                           ;main.c: 296: SYNC = 0;
   844  01EC  1218               	bcf	24,4	;volatile
   845                           
   846                           ;main.c: 297: SPEN = 1;
   847  01ED  1283               	bcf	3,5	;RP0=0, select bank0
   848  01EE  1303               	bcf	3,6	;RP1=0, select bank0
   849  01EF  1798               	bsf	24,7	;volatile
   850                           
   851                           ;main.c: 298: TXEN = 1;
   852  01F0  1683               	bsf	3,5	;RP0=1, select bank1
   853  01F1  1303               	bcf	3,6	;RP1=0, select bank1
   854  01F2  1698               	bsf	24,5	;volatile
   855  01F3  0008               	return
   856  01F4                     __end_of_init_debug:	
   857                           
   858                           	psect	text5
   859  01D8                     __ptext5:	
   860 ;; *************** function _init_buzz *****************
   861 ;; Defined at:
   862 ;;		line 260 in file "main.c"
   863 ;; Parameters:    Size  Location     Type
   864 ;;		None
   865 ;; Auto vars:     Size  Location     Type
   866 ;;		None
   867 ;; Return value:  Size  Location     Type
   868 ;;		None               void
   869 ;; Registers used:
   870 ;;		wreg
   871 ;; Tracked objects:
   872 ;;		On entry : 0/0
   873 ;;		On exit  : 0/0
   874 ;;		Unchanged: 0/0
   875 ;; Data sizes:     COMMON   BANK0   BANK1   BANK3   BANK2
   876 ;;      Params:         0       0       0       0       0
   877 ;;      Locals:         0       0       0       0       0
   878 ;;      Temps:          0       0       0       0       0
   879 ;;      Totals:         0       0       0       0       0
   880 ;;Total ram usage:        0 bytes
   881 ;; Hardware stack levels used:    1
   882 ;; Hardware stack levels required when called:    2
   883 ;; This function calls:
   884 ;;		Nothing
   885 ;; This function is called by:
   886 ;;		_init
   887 ;; This function uses a non-reentrant model
   888 ;;
   889                           
   890                           
   891                           ;psect for function _init_buzz
   892  01D8                     _init_buzz:	
   893                           
   894                           ;main.c: 261: T2CKPS1 = 1;
   895                           
   896                           ;incstack = 0
   897                           ; Regs used in _init_buzz: [wreg]
   898  01D8  1283               	bcf	3,5	;RP0=0, select bank0
   899  01D9  1303               	bcf	3,6	;RP1=0, select bank0
   900  01DA  1492               	bsf	18,1	;volatile
   901                           
   902                           ;main.c: 262: T2CKPS0 = 1;
   903  01DB  1412               	bsf	18,0	;volatile
   904                           
   905                           ;main.c: 264: PR2 = 125;
   906  01DC  307D               	movlw	125
   907  01DD  1683               	bsf	3,5	;RP0=1, select bank1
   908  01DE  1303               	bcf	3,6	;RP1=0, select bank1
   909  01DF  0092               	movwf	18	;volatile
   910                           
   911                           ;main.c: 265: TMR2ON = 1;
   912  01E0  1283               	bcf	3,5	;RP0=0, select bank0
   913  01E1  1303               	bcf	3,6	;RP1=0, select bank0
   914  01E2  1512               	bsf	18,2	;volatile
   915                           
   916                           ;main.c: 266: TMR2IE = 1;
   917  01E3  1683               	bsf	3,5	;RP0=1, select bank1
   918  01E4  1303               	bcf	3,6	;RP1=0, select bank1
   919  01E5  148C               	bsf	12,1	;volatile
   920  01E6  0008               	return
   921  01E7                     __end_of_init_buzz:	
   922                           
   923                           	psect	text6
   924  01FF                     __ptext6:	
   925 ;; *************** function _init_batt *****************
   926 ;; Defined at:
   927 ;;		line 270 in file "main.c"
   928 ;; Parameters:    Size  Location     Type
   929 ;;		None
   930 ;; Auto vars:     Size  Location     Type
   931 ;;		None
   932 ;; Return value:  Size  Location     Type
   933 ;;		None               void
   934 ;; Registers used:
   935 ;;		None
   936 ;; Tracked objects:
   937 ;;		On entry : 0/0
   938 ;;		On exit  : 0/0
   939 ;;		Unchanged: 0/0
   940 ;; Data sizes:     COMMON   BANK0   BANK1   BANK3   BANK2
   941 ;;      Params:         0       0       0       0       0
   942 ;;      Locals:         0       0       0       0       0
   943 ;;      Temps:          0       0       0       0       0
   944 ;;      Totals:         0       0       0       0       0
   945 ;;Total ram usage:        0 bytes
   946 ;; Hardware stack levels used:    1
   947 ;; Hardware stack levels required when called:    2
   948 ;; This function calls:
   949 ;;		Nothing
   950 ;; This function is called by:
   951 ;;		_init
   952 ;; This function uses a non-reentrant model
   953 ;;
   954                           
   955                           
   956                           ;psect for function _init_batt
   957  01FF                     _init_batt:	
   958                           
   959                           ;main.c: 271: T1CKPS1 = 1;
   960                           
   961                           ;incstack = 0
   962                           ; Regs used in _init_batt: []
   963  01FF  1283               	bcf	3,5	;RP0=0, select bank0
   964  0200  1303               	bcf	3,6	;RP1=0, select bank0
   965  0201  1690               	bsf	16,5	;volatile
   966                           
   967                           ;main.c: 272: T1CKPS0 = 1;
   968  0202  1610               	bsf	16,4	;volatile
   969                           
   970                           ;main.c: 274: T1OSCEN = 0;
   971  0203  1190               	bcf	16,3	;volatile
   972                           
   973                           ;main.c: 275: TMR1CS = 0;
   974  0204  1090               	bcf	16,1	;volatile
   975                           
   976                           ;main.c: 277: TMR1ON = 1;
   977  0205  1410               	bsf	16,0	;volatile
   978                           
   979                           ;main.c: 278: TMR1IE = 1;
   980  0206  1683               	bsf	3,5	;RP0=1, select bank1
   981  0207  1303               	bcf	3,6	;RP1=0, select bank1
   982  0208  140C               	bsf	12,0	;volatile
   983  0209  0008               	return
   984  020A                     __end_of_init_batt:	
   985                           
   986                           	psect	text7
   987  01AC                     __ptext7:	
   988 ;; *************** function _init_analog *****************
   989 ;; Defined at:
   990 ;;		line 239 in file "main.c"
   991 ;; Parameters:    Size  Location     Type
   992 ;;		None
   993 ;; Auto vars:     Size  Location     Type
   994 ;;		None
   995 ;; Return value:  Size  Location     Type
   996 ;;		None               void
   997 ;; Registers used:
   998 ;;		None
   999 ;; Tracked objects:
  1000 ;;		On entry : 0/0
  1001 ;;		On exit  : 0/0
  1002 ;;		Unchanged: 0/0
  1003 ;; Data sizes:     COMMON   BANK0   BANK1   BANK3   BANK2
  1004 ;;      Params:         0       0       0       0       0
  1005 ;;      Locals:         0       0       0       0       0
  1006 ;;      Temps:          0       0       0       0       0
  1007 ;;      Totals:         0       0       0       0       0
  1008 ;;Total ram usage:        0 bytes
  1009 ;; Hardware stack levels used:    1
  1010 ;; Hardware stack levels required when called:    2
  1011 ;; This function calls:
  1012 ;;		Nothing
  1013 ;; This function is called by:
  1014 ;;		_init
  1015 ;; This function uses a non-reentrant model
  1016 ;;
  1017                           
  1018                           
  1019                           ;psect for function _init_analog
  1020  01AC                     _init_analog:	
  1021                           
  1022                           ;main.c: 240: ADFM = 0;
  1023                           
  1024                           ;incstack = 0
  1025                           ; Regs used in _init_analog: []
  1026  01AC  1683               	bsf	3,5	;RP0=1, select bank1
  1027  01AD  1303               	bcf	3,6	;RP1=0, select bank1
  1028  01AE  139F               	bcf	31,7	;volatile
  1029                           
  1030                           ;main.c: 242: PCFG3 = 1;
  1031  01AF  159F               	bsf	31,3	;volatile
  1032                           
  1033                           ;main.c: 243: PCFG2 = 1;
  1034  01B0  151F               	bsf	31,2	;volatile
  1035                           
  1036                           ;main.c: 244: PCFG1 = 1;
  1037  01B1  149F               	bsf	31,1	;volatile
  1038                           
  1039                           ;main.c: 245: PCFG0 = 0;
  1040  01B2  101F               	bcf	31,0	;volatile
  1041                           
  1042                           ;main.c: 247: CHS2 = 0;
  1043  01B3  1283               	bcf	3,5	;RP0=0, select bank0
  1044  01B4  1303               	bcf	3,6	;RP1=0, select bank0
  1045  01B5  129F               	bcf	31,5	;volatile
  1046                           
  1047                           ;main.c: 248: CHS1 = 0;
  1048  01B6  121F               	bcf	31,4	;volatile
  1049                           
  1050                           ;main.c: 249: CHS0 = 0;
  1051  01B7  119F               	bcf	31,3	;volatile
  1052                           
  1053                           ;main.c: 251: ADCS2 = 1;
  1054  01B8  1683               	bsf	3,5	;RP0=1, select bank1
  1055  01B9  1303               	bcf	3,6	;RP1=0, select bank1
  1056  01BA  171F               	bsf	31,6	;volatile
  1057                           
  1058                           ;main.c: 252: ADCS1 = 1;
  1059  01BB  1283               	bcf	3,5	;RP0=0, select bank0
  1060  01BC  1303               	bcf	3,6	;RP1=0, select bank0
  1061  01BD  179F               	bsf	31,7	;volatile
  1062                           
  1063                           ;main.c: 253: ADCS0 = 1;
  1064  01BE  171F               	bsf	31,6	;volatile
  1065                           
  1066                           ;main.c: 255: ADON = 1;
  1067  01BF  141F               	bsf	31,0	;volatile
  1068                           
  1069                           ;main.c: 256: ADIE = 1;
  1070  01C0  1683               	bsf	3,5	;RP0=1, select bank1
  1071  01C1  1303               	bcf	3,6	;RP1=0, select bank1
  1072  01C2  170C               	bsf	12,6	;volatile
  1073  01C3  0008               	return
  1074  01C4                     __end_of_init_analog:	
  1075                           
  1076                           	psect	text8
  1077  0027                     __ptext8:	
  1078 ;; *************** function _prekidna_rutina *****************
  1079 ;; Defined at:
  1080 ;;		line 133 in file "main.c"
  1081 ;; Parameters:    Size  Location     Type
  1082 ;;		None
  1083 ;; Auto vars:     Size  Location     Type
  1084 ;;		None
  1085 ;; Return value:  Size  Location     Type
  1086 ;;		None               void
  1087 ;; Registers used:
  1088 ;;		wreg, status,2, status,0, pclath, cstack
  1089 ;; Tracked objects:
  1090 ;;		On entry : 0/0
  1091 ;;		On exit  : 0/0
  1092 ;;		Unchanged: 0/0
  1093 ;; Data sizes:     COMMON   BANK0   BANK1   BANK3   BANK2
  1094 ;;      Params:         0       0       0       0       0
  1095 ;;      Locals:         0       0       0       0       0
  1096 ;;      Temps:          5       0       0       0       0
  1097 ;;      Totals:         5       0       0       0       0
  1098 ;;Total ram usage:        5 bytes
  1099 ;; Hardware stack levels used:    1
  1100 ;; Hardware stack levels required when called:    1
  1101 ;; This function calls:
  1102 ;;		_led_show
  1103 ;; This function is called by:
  1104 ;;		Interrupt level 1
  1105 ;; This function uses a non-reentrant model
  1106 ;;
  1107                           
  1108                           
  1109                           ;psect for function _prekidna_rutina
  1110  0027                     _prekidna_rutina:	
  1111                           
  1112                           ;main.c: 134: if (TMR0IE && TMR0IF){
  1113  0027  1A8B               	btfsc	11,5	;volatile
  1114  0028  1D0B               	btfss	11,2	;volatile
  1115  0029  2850               	goto	i1l196
  1116                           
  1117                           ;main.c: 135: TMR0IF = 0;
  1118  002A  110B               	bcf	11,2	;volatile
  1119                           
  1120                           ;main.c: 136: if(STANJE != CEKANJE && BATERIJA == NIJEPRAZNA){
  1121  002B  0870               	movf	_STANJE,w
  1122  002C  1903               	btfsc	3,2
  1123  002D  28D6               	goto	i1l223
  1124  002E  0328               	decf	_BATERIJA,w
  1125  002F  1D03               	btfss	3,2
  1126  0030  28D6               	goto	i1l223
  1127                           
  1128                           ;main.c: 137: brojacLED++;
  1129  0031  3001               	movlw	1
  1130  0032  00F5               	movwf	??_prekidna_rutina
  1131  0033  0875               	movf	??_prekidna_rutina,w
  1132  0034  07A0               	addwf	_brojacLED,f
  1133                           
  1134                           ;main.c: 138: if(brojacLED == 8){
  1135  0035  3008               	movlw	8
  1136  0036  0620               	xorwf	_brojacLED,w
  1137  0037  1D03               	btfss	3,2
  1138  0038  28D6               	goto	i1l223
  1139                           
  1140                           ;main.c: 139: play++;
  1141  0039  3001               	movlw	1
  1142  003A  00F5               	movwf	??_prekidna_rutina
  1143  003B  0875               	movf	??_prekidna_rutina,w
  1144  003C  07F3               	addwf	_play,f
  1145                           
  1146                           ;main.c: 140: brojacLED = 0;
  1147  003D  01A0               	clrf	_brojacLED
  1148                           
  1149                           ;main.c: 141: if(STANJE == PROZVAN){
  1150  003E  0370               	decf	_STANJE,w
  1151  003F  1D03               	btfss	3,2
  1152  0040  2844               	goto	i1l1123
  1153                           
  1154                           ;main.c: 142: RD5 = 1;
  1155  0041  1688               	bsf	8,5	;volatile
  1156                           
  1157                           ;main.c: 143: RD4 = 0;
  1158  0042  1208               	bcf	8,4	;volatile
  1159                           
  1160                           ;main.c: 144: } else if (STANJE == IZVANOPSEGA){
  1161  0043  284A               	goto	i1l1127
  1162  0044                     i1l1123:	
  1163  0044  3002               	movlw	2
  1164  0045  0670               	xorwf	_STANJE,w
  1165  0046  1D03               	btfss	3,2
  1166  0047  284A               	goto	i1l1127
  1167                           
  1168                           ;main.c: 145: RD4 = 1;
  1169  0048  1608               	bsf	8,4	;volatile
  1170                           
  1171                           ;main.c: 146: RD5 = 0;
  1172  0049  1288               	bcf	8,5	;volatile
  1173  004A                     i1l1127:	
  1174                           
  1175                           ;main.c: 147: }
  1176                           ;main.c: 148: led_show();
  1177  004A  120A  118A  21C4  120A  118A  	fcall	_led_show
  1178                           
  1179                           ;main.c: 149: }
  1180                           ;main.c: 150: }
  1181                           ;main.c: 151: } else if(TMR2IE && TMR2IF){
  1182  004F  28D6               	goto	i1l223
  1183  0050                     i1l196:	
  1184  0050  1683               	bsf	3,5	;RP0=1, select bank1
  1185  0051  1303               	bcf	3,6	;RP1=0, select bank1
  1186  0052  1C8C               	btfss	12,1	;volatile
  1187  0053  287E               	goto	i1l203
  1188  0054  1283               	bcf	3,5	;RP0=0, select bank0
  1189  0055  1303               	bcf	3,6	;RP1=0, select bank0
  1190  0056  1C8C               	btfss	12,1	;volatile
  1191  0057  287E               	goto	i1l203
  1192                           
  1193                           ;main.c: 152: TMR2IF = 0;
  1194  0058  108C               	bcf	12,1	;volatile
  1195                           
  1196                           ;main.c: 153: if(STANJE == PROZVAN || STANJE == IZVANOPSEGA && BATERIJA == NIJEPRAZNA) {
  1197  0059  0370               	decf	_STANJE,w
  1198  005A  1903               	btfsc	3,2
  1199  005B  2863               	goto	i1l1139
  1200  005C  3002               	movlw	2
  1201  005D  0670               	xorwf	_STANJE,w
  1202  005E  1D03               	btfss	3,2
  1203  005F  28D6               	goto	i1l223
  1204  0060  0328               	decf	_BATERIJA,w
  1205  0061  1D03               	btfss	3,2
  1206  0062  28D6               	goto	i1l223
  1207  0063                     i1l1139:	
  1208                           
  1209                           ;main.c: 154: if(play < 2){
  1210  0063  3002               	movlw	2
  1211  0064  0273               	subwf	_play,w
  1212  0065  1803               	skipnc
  1213  0066  2876               	goto	i1l1153
  1214                           
  1215                           ;main.c: 155: sound++;
  1216  0067  3001               	movlw	1
  1217  0068  00F5               	movwf	??_prekidna_rutina
  1218  0069  0875               	movf	??_prekidna_rutina,w
  1219  006A  07F4               	addwf	_sound,f
  1220                           
  1221                           ;main.c: 156: RA5 = 0;
  1222  006B  1285               	bcf	5,5	;volatile
  1223                           
  1224                           ;main.c: 157: if(sound == 1) RC3 = 1;
  1225  006C  0374               	decf	_sound,w
  1226  006D  1903               	btfsc	3,2
  1227  006E  1587               	bsf	7,3	;volatile
  1228                           
  1229                           ;main.c: 158: if (sound == 2){
  1230  006F  3002               	movlw	2
  1231  0070  0674               	xorwf	_sound,w
  1232  0071  1D03               	btfss	3,2
  1233  0072  28D6               	goto	i1l223
  1234                           
  1235                           ;main.c: 159: sound = 0;
  1236  0073  01F4               	clrf	_sound
  1237                           
  1238                           ;main.c: 160: RC3 = 0;
  1239  0074  1187               	bcf	7,3	;volatile
  1240                           
  1241                           ;main.c: 161: }
  1242                           ;main.c: 162: } else if(play < 4)
  1243  0075  28D6               	goto	i1l223
  1244  0076                     i1l1153:	
  1245  0076  3004               	movlw	4
  1246  0077  0273               	subwf	_play,w
  1247  0078  1803               	skipnc
  1248  0079  287C               	goto	i1l1157
  1249                           
  1250                           ;main.c: 163: RA5 = 1;
  1251  007A  1685               	bsf	5,5	;volatile
  1252  007B  28D6               	goto	i1l223
  1253  007C                     i1l1157:	
  1254                           
  1255                           ;main.c: 164: else
  1256                           ;main.c: 165: play = 0;
  1257  007C  01F3               	clrf	_play
  1258                           
  1259                           ;main.c: 166: }
  1260                           ;main.c: 167: } else if (TMR1IE && TMR1IF){
  1261  007D  28D6               	goto	i1l223
  1262  007E                     i1l203:	
  1263  007E  1683               	bsf	3,5	;RP0=1, select bank1
  1264  007F  1303               	bcf	3,6	;RP1=0, select bank1
  1265  0080  1C0C               	btfss	12,0	;volatile
  1266  0081  289B               	goto	i1l214
  1267  0082  1283               	bcf	3,5	;RP0=0, select bank0
  1268  0083  1303               	bcf	3,6	;RP1=0, select bank0
  1269  0084  1C0C               	btfss	12,0	;volatile
  1270  0085  289B               	goto	i1l214
  1271                           
  1272                           ;main.c: 168: TMR1IF = 0;
  1273  0086  100C               	bcf	12,0	;volatile
  1274                           
  1275                           ;main.c: 169: loop++;
  1276  0087  3001               	movlw	1
  1277  0088  00F5               	movwf	??_prekidna_rutina
  1278  0089  0875               	movf	??_prekidna_rutina,w
  1279  008A  07A2               	addwf	_loop,f
  1280                           
  1281                           ;main.c: 170: if (loop == 19){
  1282  008B  3013               	movlw	19
  1283  008C  0622               	xorwf	_loop,w
  1284  008D  1D03               	btfss	3,2
  1285  008E  28D6               	goto	i1l223
  1286                           
  1287                           ;main.c: 171: if (opsegID == 0x00)
  1288  008F  0823               	movf	_opsegID,w
  1289  0090  1D03               	btfss	3,2
  1290  0091  2897               	goto	i1l1169
  1291                           
  1292                           ;main.c: 172: STANJE = IZVANOPSEGA;
  1293  0092  3002               	movlw	2
  1294  0093  00F5               	movwf	??_prekidna_rutina
  1295  0094  0875               	movf	??_prekidna_rutina,w
  1296  0095  00F0               	movwf	_STANJE
  1297  0096  2898               	goto	i1l217
  1298  0097                     i1l1169:	
  1299                           
  1300                           ;main.c: 173: else
  1301                           ;main.c: 174: opsegID = 0x00;
  1302  0097  01A3               	clrf	_opsegID
  1303  0098                     i1l217:	
  1304                           
  1305                           ;main.c: 175: loop = 0;
  1306  0098  01A2               	clrf	_loop
  1307                           
  1308                           ;main.c: 176: GO = 1;
  1309  0099  151F               	bsf	31,2	;volatile
  1310                           
  1311                           ;main.c: 177: }
  1312                           ;main.c: 178: } else if (ADIE && ADIF){
  1313  009A  28D6               	goto	i1l223
  1314  009B                     i1l214:	
  1315  009B  1683               	bsf	3,5	;RP0=1, select bank1
  1316  009C  1303               	bcf	3,6	;RP1=0, select bank1
  1317  009D  1F0C               	btfss	12,6	;volatile
  1318  009E  28D6               	goto	i1l223
  1319  009F  1283               	bcf	3,5	;RP0=0, select bank0
  1320  00A0  1303               	bcf	3,6	;RP1=0, select bank0
  1321  00A1  1F0C               	btfss	12,6	;volatile
  1322  00A2  28D6               	goto	i1l223
  1323                           
  1324                           ;main.c: 179: ADIF = 0;
  1325  00A3  130C               	bcf	12,6	;volatile
  1326                           
  1327                           ;main.c: 180: if (ADRESH > 55) {
  1328  00A4  3038               	movlw	56
  1329  00A5  021E               	subwf	30,w	;volatile
  1330  00A6  1C03               	skipc
  1331  00A7  28B2               	goto	i1l220
  1332                           
  1333                           ;main.c: 181: BATERIJA = PRAZNA;
  1334  00A8  01A8               	clrf	_BATERIJA
  1335                           
  1336                           ;main.c: 182: RD4 = 1;
  1337  00A9  1608               	bsf	8,4	;volatile
  1338                           
  1339                           ;main.c: 183: RD5 = 0;
  1340  00AA  1288               	bcf	8,5	;volatile
  1341                           
  1342                           ;main.c: 184: RD0 = RD1 = RD2 = RD3 = 0;
  1343  00AB  1188               	bcf	8,3	;volatile
  1344  00AC  1108               	bcf	8,2	;volatile
  1345  00AD  1088               	bcf	8,1	;volatile
  1346  00AE  1008               	bcf	8,0	;volatile
  1347                           
  1348                           ;main.c: 185: prazna = 1;
  1349  00AF  01A4               	clrf	_prazna
  1350  00B0  0AA4               	incf	_prazna,f
  1351                           
  1352                           ;main.c: 186: } else {
  1353  00B1  28D6               	goto	i1l223
  1354  00B2                     i1l220:	
  1355                           
  1356                           ;main.c: 187: BATERIJA = NIJEPRAZNA;
  1357  00B2  01A8               	clrf	_BATERIJA
  1358  00B3  0AA8               	incf	_BATERIJA,f
  1359                           
  1360                           ;main.c: 188: if(prazna == 1){
  1361  00B4  0324               	decf	_prazna,w
  1362  00B5  1D03               	btfss	3,2
  1363  00B6  28D5               	goto	i1l1193
  1364                           
  1365                           ;main.c: 189: RD0 = RD1 = RD2 = RD3 = 1;
  1366  00B7  1588               	bsf	8,3	;volatile
  1367  00B8  1D88               	btfss	8,3	;volatile
  1368  00B9  28BE               	goto	u97_20
  1369  00BA  1283               	bcf	3,5	;RP0=0, select bank0
  1370  00BB  1303               	bcf	3,6	;RP1=0, select bank0
  1371  00BC  1508               	bsf	8,2	;volatile
  1372  00BD  28C1               	goto	u98_24
  1373  00BE                     u97_20:	
  1374  00BE  1283               	bcf	3,5	;RP0=0, select bank0
  1375  00BF  1303               	bcf	3,6	;RP1=0, select bank0
  1376  00C0  1108               	bcf	8,2	;volatile
  1377  00C1                     u98_24:	
  1378  00C1  1D08               	btfss	8,2	;volatile
  1379  00C2  28C7               	goto	u98_20
  1380  00C3  1283               	bcf	3,5	;RP0=0, select bank0
  1381  00C4  1303               	bcf	3,6	;RP1=0, select bank0
  1382  00C5  1488               	bsf	8,1	;volatile
  1383  00C6  28CA               	goto	u99_24
  1384  00C7                     u98_20:	
  1385  00C7  1283               	bcf	3,5	;RP0=0, select bank0
  1386  00C8  1303               	bcf	3,6	;RP1=0, select bank0
  1387  00C9  1088               	bcf	8,1	;volatile
  1388  00CA                     u99_24:	
  1389  00CA  1C88               	btfss	8,1	;volatile
  1390  00CB  28D0               	goto	u99_20
  1391  00CC  1283               	bcf	3,5	;RP0=0, select bank0
  1392  00CD  1303               	bcf	3,6	;RP1=0, select bank0
  1393  00CE  1408               	bsf	8,0	;volatile
  1394  00CF  28D3               	goto	u100_24
  1395  00D0                     u99_20:	
  1396  00D0  1283               	bcf	3,5	;RP0=0, select bank0
  1397  00D1  1303               	bcf	3,6	;RP1=0, select bank0
  1398  00D2  1008               	bcf	8,0	;volatile
  1399  00D3                     u100_24:	
  1400                           
  1401                           ;main.c: 190: RD4 = 0;
  1402  00D3  1208               	bcf	8,4	;volatile
  1403                           
  1404                           ;main.c: 191: RD5 = 0;
  1405  00D4  1288               	bcf	8,5	;volatile
  1406  00D5                     i1l1193:	
  1407                           
  1408                           ;main.c: 192: }
  1409                           ;main.c: 193: prazna = 0;
  1410  00D5  01A4               	clrf	_prazna
  1411  00D6                     i1l223:	
  1412  00D6  0879               	movf	??_prekidna_rutina+4,w
  1413  00D7  1283               	bcf	3,5	;RP0=0, select bank0
  1414  00D8  1303               	bcf	3,6	;RP1=0, select bank0
  1415  00D9  00FF               	movwf	127
  1416  00DA  0878               	movf	??_prekidna_rutina+3,w
  1417  00DB  008A               	movwf	10
  1418  00DC  0877               	movf	??_prekidna_rutina+2,w
  1419  00DD  0084               	movwf	4
  1420  00DE  0E76               	swapf	(??_prekidna_rutina+1)^(0+-128),w
  1421  00DF  0083               	movwf	3
  1422  00E0  0EFE               	swapf	126,f
  1423  00E1  0E7E               	swapf	126,w
  1424  00E2  0009               	retfie
  1425  00E3                     __end_of_prekidna_rutina:	
  1426                           
  1427                           	psect	intentry
  1428  0004                     __pintentry:	
  1429                           ;incstack = 0
  1430                           ; Regs used in _prekidna_rutina: [wreg+status,2+status,0+pclath+cstack]
  1431                           
  1432  0004                     interrupt_function:	
  1433  007E                     saved_w	set	btemp
  1434  0004  00FE               	movwf	btemp
  1435  0005  0E03               	swapf	3,w
  1436  0006  00F6               	movwf	??_prekidna_rutina+1
  1437  0007  0804               	movf	4,w
  1438  0008  00F7               	movwf	??_prekidna_rutina+2
  1439  0009  080A               	movf	10,w
  1440  000A  00F8               	movwf	??_prekidna_rutina+3
  1441  000B  1283               	bcf	3,5	;RP0=0, select bank0
  1442  000C  1303               	bcf	3,6	;RP1=0, select bank0
  1443  000D  087F               	movf	btemp+1,w
  1444  000E  00F9               	movwf	??_prekidna_rutina+4
  1445  000F  120A  118A  2827   	ljmp	_prekidna_rutina
  1446                           
  1447                           	psect	text9
  1448  01C4                     __ptext9:	
  1449 ;; *************** function _led_show *****************
  1450 ;; Defined at:
  1451 ;;		line 302 in file "main.c"
  1452 ;; Parameters:    Size  Location     Type
  1453 ;;		None
  1454 ;; Auto vars:     Size  Location     Type
  1455 ;;		None
  1456 ;; Return value:  Size  Location     Type
  1457 ;;		None               void
  1458 ;; Registers used:
  1459 ;;		None
  1460 ;; Tracked objects:
  1461 ;;		On entry : 0/0
  1462 ;;		On exit  : 0/0
  1463 ;;		Unchanged: 0/0
  1464 ;; Data sizes:     COMMON   BANK0   BANK1   BANK3   BANK2
  1465 ;;      Params:         0       0       0       0       0
  1466 ;;      Locals:         0       0       0       0       0
  1467 ;;      Temps:          0       0       0       0       0
  1468 ;;      Totals:         0       0       0       0       0
  1469 ;;Total ram usage:        0 bytes
  1470 ;; Hardware stack levels used:    1
  1471 ;; This function calls:
  1472 ;;		Nothing
  1473 ;; This function is called by:
  1474 ;;		_prekidna_rutina
  1475 ;; This function uses a non-reentrant model
  1476 ;;
  1477                           
  1478                           
  1479                           ;psect for function _led_show
  1480  01C4                     _led_show:	
  1481                           
  1482                           ;main.c: 303: if (RD0 == 0) {
  1483                           
  1484                           ;incstack = 0
  1485                           ; Regs used in _led_show: []
  1486  01C4  1283               	bcf	3,5	;RP0=0, select bank0
  1487  01C5  1303               	bcf	3,6	;RP1=0, select bank0
  1488  01C6  1808               	btfsc	8,0	;volatile
  1489  01C7  29CB               	goto	i1l245
  1490                           
  1491                           ;main.c: 304: RD0 = 1;
  1492  01C8  1408               	bsf	8,0	;volatile
  1493                           
  1494                           ;main.c: 305: RD1 = 0;
  1495  01C9  1088               	bcf	8,1	;volatile
  1496                           
  1497                           ;main.c: 306: } else if(RD1 == 0) {
  1498  01CA  0008               	return
  1499  01CB                     i1l245:	
  1500  01CB  1888               	btfsc	8,1	;volatile
  1501  01CC  29D0               	goto	i1l247
  1502                           
  1503                           ;main.c: 307: RD1 = 1;
  1504  01CD  1488               	bsf	8,1	;volatile
  1505                           
  1506                           ;main.c: 308: RD2 = 0;
  1507  01CE  1108               	bcf	8,2	;volatile
  1508                           
  1509                           ;main.c: 309: } else if(RD2 == 0) {
  1510  01CF  0008               	return
  1511  01D0                     i1l247:	
  1512  01D0  1908               	btfsc	8,2	;volatile
  1513  01D1  29D5               	goto	i1l249
  1514                           
  1515                           ;main.c: 310: RD2 = 1;
  1516  01D2  1508               	bsf	8,2	;volatile
  1517                           
  1518                           ;main.c: 311: RD3 = 0;
  1519  01D3  1188               	bcf	8,3	;volatile
  1520                           
  1521                           ;main.c: 312: } else {
  1522  01D4  0008               	return
  1523  01D5                     i1l249:	
  1524                           
  1525                           ;main.c: 313: RD3 = 1;
  1526  01D5  1588               	bsf	8,3	;volatile
  1527                           
  1528                           ;main.c: 314: RD0 = 0;
  1529  01D6  1008               	bcf	8,0	;volatile
  1530  01D7  0008               	return
  1531  01D8                     __end_of_led_show:	
  1532  007E                     btemp	set	126	;btemp
  1533  007E                     wtemp	set	126
  1534  007E                     wtemp0	set	126
  1535  0080                     wtemp1	set	128
  1536  0082                     wtemp2	set	130
  1537  0084                     wtemp3	set	132
  1538  0086                     wtemp4	set	134
  1539  0088                     wtemp5	set	136
  1540  007F                     wtemp6	set	127
  1541  007E                     ttemp	set	126
  1542  007E                     ttemp0	set	126
  1543  0081                     ttemp1	set	129
  1544  0084                     ttemp2	set	132
  1545  0087                     ttemp3	set	135
  1546  007F                     ttemp4	set	127
  1547  007E                     ltemp	set	126
  1548  007E                     ltemp0	set	126
  1549  0082                     ltemp1	set	130
  1550  0086                     ltemp2	set	134
  1551  0080                     ltemp3	set	128


Data Sizes:
    Strings     0
    Constant    0
    Data        1
    BSS         10
    Persistent  1
    Stack       0

Auto Spaces:
    Space          Size  Autos    Used
    COMMON           14      5      11
    BANK0            80      3       9
    BANK1            80      0       0
    BANK3            96      0       0
    BANK2            96      0       0

Pointer List with Targets:

    None.

Critical Paths under _main in COMMON

    None.

Critical Paths under _prekidna_rutina in COMMON

    None.

Critical Paths under _main in BANK0

    _main->_rf_decode

Critical Paths under _prekidna_rutina in BANK0

    None.

Critical Paths under _main in BANK1

    None.

Critical Paths under _prekidna_rutina in BANK1

    None.

Critical Paths under _main in BANK3

    None.

Critical Paths under _prekidna_rutina in BANK3

    None.

Critical Paths under _main in BANK2

    None.

Critical Paths under _prekidna_rutina in BANK2

    None.

Call Graph Tables:

 ---------------------------------------------------------------------------------
 (Depth) Function   	        Calls       Base Space   Used Autos Params    Refs
 ---------------------------------------------------------------------------------
 (0) _main                                                 0     0      0     195
                               _init
                          _rf_decode
 ---------------------------------------------------------------------------------
 (1) _rf_decode                                            3     3      0     195
                                              0 BANK0      3     3      0
 ---------------------------------------------------------------------------------
 (1) _init                                                 0     0      0       0
                        _init_analog
                          _init_batt
                          _init_buzz
                         _init_debug
                           _init_led
 ---------------------------------------------------------------------------------
 (2) _init_led                                             0     0      0       0
 ---------------------------------------------------------------------------------
 (2) _init_debug                                           0     0      0       0
 ---------------------------------------------------------------------------------
 (2) _init_buzz                                            0     0      0       0
 ---------------------------------------------------------------------------------
 (2) _init_batt                                            0     0      0       0
 ---------------------------------------------------------------------------------
 (2) _init_analog                                          0     0      0       0
 ---------------------------------------------------------------------------------
 Estimated maximum stack depth 2
 ---------------------------------------------------------------------------------
 (Depth) Function   	        Calls       Base Space   Used Autos Params    Refs
 ---------------------------------------------------------------------------------
 (3) _prekidna_rutina                                      5     5      0       0
                                              0 COMMON     5     5      0
                           _led_show
 ---------------------------------------------------------------------------------
 (4) _led_show                                             0     0      0       0
 ---------------------------------------------------------------------------------
 Estimated maximum stack depth 4
 ---------------------------------------------------------------------------------

 Call Graph Graphs:

 _main (ROOT)
   _init
     _init_analog
     _init_batt
     _init_buzz
     _init_debug
     _init_led
   _rf_decode

 _prekidna_rutina (ROOT)
   _led_show

 Address spaces:
Name               Size   Autos  Total    Cost      Usage
BANK3               60      0       0       9        0.0%
BITBANK3            60      0       0       8        0.0%
SFR3                 0      0       0       4        0.0%
BITSFR3              0      0       0       4        0.0%
BANK2               60      0       0      11        0.0%
BITBANK2            60      0       0      10        0.0%
SFR2                 0      0       0       5        0.0%
BITSFR2              0      0       0       5        0.0%
BANK1               50      0       0       7        0.0%
BITBANK1            50      0       0       6        0.0%
SFR1                 0      0       0       2        0.0%
BITSFR1              0      0       0       2        0.0%
BANK0               50      3       9       5       11.3%
BITBANK0            50      0       0       4        0.0%
SFR0                 0      0       0       1        0.0%
BITSFR0              0      0       0       1        0.0%
COMMON               E      5       B       1       78.6%
BITCOMMON            E      0       0       0        0.0%
CODE                 0      0       0       0        0.0%
DATA                 0      0      14      12        0.0%
ABS                  0      0      14       3        0.0%
NULL                 0      0       0       0        0.0%
STACK                0      0       0       2        0.0%
EEDATA             100      0       0       0        0.0%


Microchip Technology PIC Macro Assembler V1.35 build -356382666 
Symbol Table                                                                                   Thu Jun 30 13:04:38 2016

                       _i 0071               __CFG_CP$OFF 0000                        _GO 00FA  
                     l161 01F9                       l171 00FB                       l174 010B  
                     l186 0169                       l189 0179                       _GIE 005F  
                     _RB0 0030                       _RA5 002D                       _RD0 0040  
                     _RD1 0041                       _RC3 003B                       _RD2 0042  
                     _RD3 0043                       _RD4 0044                       _RD5 0045  
                     _RD6 0046                       _PS0 0408                       _PR2 0092  
                     _PS1 0409                       _PS2 040A              __CFG_CPD$OFF 0000  
                     _PSA 040B                       fsr0 0004              __CFG_FOSC$HS 0000  
            __CFG_LVP$OFF 0000                      l1301 014A                      l1321 016B  
                    l1313 015B                      l1327 0175                      l1291 012B  
                    l1269 00EB                      l1295 013E                      l1289 011D  
                    _ADIE 0466                      _ADIF 0066                      _ADFM 04FF  
                    _ADON 00F8                      _CHS0 00FB                      _CHS1 00FC  
                    _CHS2 00FD                      _BRGH 04C2                      _T0CS 040D  
                    u1207 00ED                      u1217 00FF                      u1074 0115  
                    u1227 012F                      u1075 0113                      u1084 0123  
                    u1085 0121                      _PEIE 005E                      _SPEN 00C7  
                    _TXEN 04C5                      _SYNC 04C4              __CFG_WRT$OFF 0000  
                    _main 01F4                      _init 017B                      _loop 0022  
                    _play 0073                      btemp 007E                      ltemp 007E  
                    start 0012                      ttemp 007E                      wtemp 007E  
                   _ADCS0 00FE                     _ADCS1 00FF                     _ADCS2 04FE  
                   ?_main 0075                     ?_init 0075             __CFG_WDTE$OFF 0000  
            ?_init_analog 0075                     _PCFG0 04F8                     _PCFG1 04F9  
                   _PCFG2 04FA                     _PCFG3 04FB                     i1l203 007E  
                   i1l220 00B2                     i1l214 009B                     i1l223 00D6  
                   i1l217 0098                     i1l245 01CB                     i1l247 01D0  
                   i1l249 01D5                     i1l196 0050                     _SPBRG 0099  
                   _TRISD 0088                     u97_20 00BE                     _TXREG 0019  
                   u98_20 00C7                     u98_24 00C1                     u99_20 00D0  
                   u99_24 00CA                     _sound 0074            __CFG_BOREN$OFF 0000  
                   pclath 000A                     ltemp0 007E                     ltemp1 0082  
                   ltemp2 0086                     ltemp3 0080                     ttemp0 007E  
                   ttemp1 0081                     ttemp2 0084                     ttemp3 0087  
                   ttemp4 007F                     status 0003                     wtemp0 007E  
                   wtemp1 0080                     wtemp2 0082                     wtemp3 0084  
                   wtemp4 0086                     wtemp5 0088                     wtemp6 007F  
         __initialization 0015              __end_of_main 01FF              __end_of_init 01AC  
                  ??_main 0028                    ??_init 0025                    _ADRESH 001E  
                  u100_24 00D3                    i1l1123 0044                    i1l1127 004A  
                  i1l1153 0076                    i1l1139 0063                    i1l1157 007C  
                  i1l1193 00D5                    i1l1169 0097                    _TMR0IE 005D  
                  _TMR0IF 005A                    _TMR1IE 0460                    _TMR1IF 0060  
                  _TMR1CS 0081                    _TMR2IE 0461                    _TMR2IF 0061  
                  _TMR1ON 0080                    _TMR2ON 0092                    _STANJE 0070  
          __CFG_PWRTE$OFF 0000          __end_of_led_show 01D8           _prekidna_rutina 0027  
        __end_of_init_led 0213                    _prazna 0024              __pdataCOMMON 007A  
                  saved_w 007E   __end_of__initialization 0023            __pcstackCOMMON 0075  
    __size_of_init_analog 0018                __pbssBANK0 0020        __size_of_init_batt 000B  
 __end_of_prekidna_rutina 00E3        __size_of_init_buzz 000F        __size_of_rf_decode 0098  
              __pmaintext 01F4                __pintentry 0004                   _T1CKPS0 0084  
                 _T1CKPS1 0085                   _T2CKPS0 0090                   _T2CKPS1 0091  
                 _T1OSCEN 0083                 ?_led_show 0075                 ?_init_led 0075  
              _init_debug 01E7                   __ptext1 00E3                   __ptext2 017B  
                 __ptext3 020A                   __ptext4 01E7                   __ptext5 01D8  
                 __ptext6 01FF                   __ptext7 01AC                   __ptext8 0027  
                 __ptext9 01C4                   _pagerID 007A         __end_of_init_batt 020A  
       __end_of_init_buzz 01E7         __end_of_rf_decode 017B                   _opsegID 0023  
    end_of_initialization 0023                ??_led_show 0075                ??_init_led 0025  
        ?_prekidna_rutina 0075                 _TRISAbits 0085                 _TRISBbits 0086  
               _TRISCbits 0087               ?_init_debug 0075             __pidataCOMMON 0213  
     start_initialization 0015             ??_init_analog 0025               __pbssCOMMON 0070  
               ___latbits 0002             __pcstackBANK0 0025       __size_of_init_debug 000D  
       __size_of_led_show 0014                 __pnvBANK0 0028         __size_of_init_led 0009  
               _brojacLED 0020                 _brojacVIB 0021                  _BATERIJA 0028  
     __end_of_init_analog 01C4                 _init_batt 01FF                 _init_buzz 01D8  
               _rf_decode 00E3         interrupt_function 0004          rf_decode@podatak 0027  
              ?_init_batt 0075                ?_init_buzz 0075                ?_rf_decode 0075  
            ??_init_debug 0025  __size_of_prekidna_rutina 00BC               _init_analog 01AC  
                _led_show 01C4            _message_header 0072        __end_of_init_debug 01F4  
                _init_led 020A             __size_of_main 000B             __size_of_init 0031  
             ??_init_batt 0025               ??_init_buzz 0025               ??_rf_decode 0025  
                intlevel1 0000         ??_prekidna_rutina 0075  
